; Function Attrs: mustprogress uwtable
define dso_local noundef zeroext i1 @_ZN16cmCPackGenerator13ConfigureFileERKNSt7__cxx1112basic_stringIcSt11char_traitsIcESaIcEEES7_b(ptr nocapture noundef nonnull readonly align 8 dereferenceable(360) %0, ptr noundef nonnull align 8 dereferenceable(32) %1, ptr noundef nonnull align 8 dereferenceable(32) %2, i1 noundef zeroext %3) unnamed_addr #6 align 2 {
  %5 = alloca %class.cmNewLineStyle, align 4
  %6 = getelementptr inbounds i8, ptr %0, i64 352
  %7 = load ptr, ptr %6, align 8
  call void @_ZN14cmNewLineStyleC1Ev(ptr noundef nonnull align 4 dereferenceable(4) %5)
  %8 = load i32, ptr %5, align 4
  %9 = call noundef i32 @_ZN10cmMakefile13ConfigureFileERKNSt7__cxx1112basic_stringIcSt11char_traitsIcESaIcEEES7_bbbj14cmNewLineStyle(ptr noundef nonnull align 8 dereferenceable(3520) %7, ptr noundef nonnull align 8 dereferenceable(32) %1, ptr noundef nonnull align 8 dereferenceable(32) %2, i1 noundef zeroext %3, i1 noundef zeroext true, i1 noundef zeroext false, i32 noundef 0, i32 %8)
  %10 = icmp eq i32 %9, 1
  ret i1 %10
}